target datalayout = "e-m:e-p270:32:32-p271:32:32-p272:64:64-i64:64-i128:128-f80:128-n8:16:32:64-S128"
target triple = "x86_64-pc-linux-gnu"

%struct.event_callback = type { %struct.anon, i16, i8, i8, %union.anon, ptr }
%struct.anon = type { ptr, ptr }
%union.anon = type { ptr }
%struct.evdns_request = type { ptr, ptr, i32, %struct.event_callback, ptr, ptr, i8, i8, i32, i32, %struct.reply, i32, ptr, ptr, i32, i16 }
%struct.reply = type { i32, i8, i32, %union.anon.7, ptr }
%union.anon.7 = type { ptr }

; Function Attrs: nounwind uwtable
define internal void @reply_run_callback(ptr noundef %0, ptr noundef %1) #0 {
  %3 = alloca ptr, align 8
  %4 = alloca ptr, align 8
  %5 = alloca ptr, align 8
  %6 = alloca ptr, align 8
  store ptr %0, ptr %3, align 8
  store ptr %1, ptr %4, align 8
  call void @llvm.lifetime.start.p0(i64 8, ptr %5) #10
  %7 = load ptr, ptr %3, align 8
  %8 = getelementptr inbounds i8, ptr %7, i64 -24
  store ptr %8, ptr %5, align 8
  %9 = load ptr, ptr %5, align 8
  %10 = getelementptr inbounds nuw %struct.evdns_request, ptr %9, i32 0, i32 6
  %11 = load i8, ptr %10, align 8
  %12 = zext i8 %11 to i32
  switch i32 %12, label %144 [
    i32 1, label %13
    i32 12, label %64
    i32 28, label %93
  ]

13:                                               ; preds = %2
  %14 = load ptr, ptr %5, align 8
  %15 = getelementptr inbounds nuw %struct.evdns_request, ptr %14, i32 0, i32 7
  %16 = load i8, ptr %15, align 1
  %17 = icmp ne i8 %16, 0
  br i1 %17, label %18, label %52

18:                                               ; preds = %13
  %19 = load ptr, ptr %5, align 8
  %20 = getelementptr inbounds nuw %struct.evdns_request, ptr %19, i32 0, i32 4
  %21 = load ptr, ptr %20, align 8
  %22 = load ptr, ptr %5, align 8
  %23 = getelementptr inbounds nuw %struct.evdns_request, ptr %22, i32 0, i32 10
  %24 = getelementptr inbounds nuw %struct.reply, ptr %23, i32 0, i32 2
  %25 = load i32, ptr %24, align 8
  %26 = load ptr, ptr %5, align 8
  %27 = getelementptr inbounds nuw %struct.evdns_request, ptr %26, i32 0, i32 8
  %28 = load i32, ptr %27, align 4
  %29 = load ptr, ptr %5, align 8
  %30 = getelementptr inbounds nuw %struct.evdns_request, ptr %29, i32 0, i32 10
  %31 = getelementptr inbounds nuw %struct.reply, ptr %30, i32 0, i32 3
  %32 = load ptr, ptr %31, align 8
  %33 = load ptr, ptr %4, align 8
  call void %21(i32 noundef 0, i8 noundef signext 1, i32 noundef %25, i32 noundef %28, ptr noundef %32, ptr noundef %33)
  %34 = load ptr, ptr %5, align 8
  %35 = getelementptr inbounds nuw %struct.evdns_request, ptr %34, i32 0, i32 10
  %36 = getelementptr inbounds nuw %struct.reply, ptr %35, i32 0, i32 4
  %37 = load ptr, ptr %36, align 8
  %38 = icmp ne ptr %37, null
  br i1 %38, label %39, label %51

39:                                               ; preds = %18
  %40 = load ptr, ptr %5, align 8
  %41 = getelementptr inbounds nuw %struct.evdns_request, ptr %40, i32 0, i32 4
  %42 = load ptr, ptr %41, align 8
  %43 = load ptr, ptr %5, align 8
  %44 = getelementptr inbounds nuw %struct.evdns_request, ptr %43, i32 0, i32 8
  %45 = load i32, ptr %44, align 4
  %46 = load ptr, ptr %5, align 8
  %47 = getelementptr inbounds nuw %struct.evdns_request, ptr %46, i32 0, i32 10
  %48 = getelementptr inbounds nuw %struct.reply, ptr %47, i32 0, i32 4
  %49 = load ptr, ptr %48, align 8
  %50 = load ptr, ptr %4, align 8
  call void %42(i32 noundef 0, i8 noundef signext 4, i32 noundef 1, i32 noundef %45, ptr noundef %49, ptr noundef %50)
  br label %51

51:                                               ; preds = %39, %18
  br label %63

52:                                               ; preds = %13
  %53 = load ptr, ptr %5, align 8
  %54 = getelementptr inbounds nuw %struct.evdns_request, ptr %53, i32 0, i32 4
  %55 = load ptr, ptr %54, align 8
  %56 = load ptr, ptr %5, align 8
  %57 = getelementptr inbounds nuw %struct.evdns_request, ptr %56, i32 0, i32 9
  %58 = load i32, ptr %57, align 8
  %59 = load ptr, ptr %5, align 8
  %60 = getelementptr inbounds nuw %struct.evdns_request, ptr %59, i32 0, i32 8
  %61 = load i32, ptr %60, align 4
  %62 = load ptr, ptr %4, align 8
  call void %55(i32 noundef %58, i8 noundef signext 1, i32 noundef 0, i32 noundef %61, ptr noundef null, ptr noundef %62)
  br label %63

63:                                               ; preds = %52, %51
  br label %148

64:                                               ; preds = %2
  %65 = load ptr, ptr %5, align 8
  %66 = getelementptr inbounds nuw %struct.evdns_request, ptr %65, i32 0, i32 7
  %67 = load i8, ptr %66, align 1
  %68 = icmp ne i8 %67, 0
  br i1 %68, label %69, label %81

69:                                               ; preds = %64
  call void @llvm.lifetime.start.p0(i64 8, ptr %6) #10
  %70 = load ptr, ptr %5, align 8
  %71 = getelementptr inbounds nuw %struct.evdns_request, ptr %70, i32 0, i32 10
  %72 = getelementptr inbounds nuw %struct.reply, ptr %71, i32 0, i32 3
  %73 = load ptr, ptr %72, align 8
  store ptr %73, ptr %6, align 8
  %74 = load ptr, ptr %5, align 8
  %75 = getelementptr inbounds nuw %struct.evdns_request, ptr %74, i32 0, i32 4
  %76 = load ptr, ptr %75, align 8
  %77 = load ptr, ptr %5, align 8
  %78 = getelementptr inbounds nuw %struct.evdns_request, ptr %77, i32 0, i32 8
  %79 = load i32, ptr %78, align 4
  %80 = load ptr, ptr %4, align 8
  call void %76(i32 noundef 0, i8 noundef signext 2, i32 noundef 1, i32 noundef %79, ptr noundef %6, ptr noundef %80)
  call void @llvm.lifetime.end.p0(i64 8, ptr %6) #10
  br label %92

81:                                               ; preds = %64
  %82 = load ptr, ptr %5, align 8
  %83 = getelementptr inbounds nuw %struct.evdns_request, ptr %82, i32 0, i32 4
  %84 = load ptr, ptr %83, align 8
  %85 = load ptr, ptr %5, align 8
  %86 = getelementptr inbounds nuw %struct.evdns_request, ptr %85, i32 0, i32 9
  %87 = load i32, ptr %86, align 8
  %88 = load ptr, ptr %5, align 8
  %89 = getelementptr inbounds nuw %struct.evdns_request, ptr %88, i32 0, i32 8
  %90 = load i32, ptr %89, align 4
  %91 = load ptr, ptr %4, align 8
  call void %84(i32 noundef %87, i8 noundef signext 2, i32 noundef 0, i32 noundef %90, ptr noundef null, ptr noundef %91)
  br label %92

92:                                               ; preds = %81, %69
  br label %148

93:                                               ; preds = %2
  %94 = load ptr, ptr %5, align 8
  %95 = getelementptr inbounds nuw %struct.evdns_request, ptr %94, i32 0, i32 7
  %96 = load i8, ptr %95, align 1
  %97 = icmp ne i8 %96, 0
  br i1 %97, label %98, label %132

98:                                               ; preds = %93
  %99 = load ptr, ptr %5, align 8
  %100 = getelementptr inbounds nuw %struct.evdns_request, ptr %99, i32 0, i32 4
  %101 = load ptr, ptr %100, align 8
  %102 = load ptr, ptr %5, align 8
  %103 = getelementptr inbounds nuw %struct.evdns_request, ptr %102, i32 0, i32 10
  %104 = getelementptr inbounds nuw %struct.reply, ptr %103, i32 0, i32 2
  %105 = load i32, ptr %104, align 8
  %106 = load ptr, ptr %5, align 8
  %107 = getelementptr inbounds nuw %struct.evdns_request, ptr %106, i32 0, i32 8
  %108 = load i32, ptr %107, align 4
  %109 = load ptr, ptr %5, align 8
  %110 = getelementptr inbounds nuw %struct.evdns_request, ptr %109, i32 0, i32 10
  %111 = getelementptr inbounds nuw %struct.reply, ptr %110, i32 0, i32 3
  %112 = load ptr, ptr %111, align 8
  %113 = load ptr, ptr %4, align 8
  call void %101(i32 noundef 0, i8 noundef signext 3, i32 noundef %105, i32 noundef %108, ptr noundef %112, ptr noundef %113)
  %114 = load ptr, ptr %5, align 8
  %115 = getelementptr inbounds nuw %struct.evdns_request, ptr %114, i32 0, i32 10
  %116 = getelementptr inbounds nuw %struct.reply, ptr %115, i32 0, i32 4
  %117 = load ptr, ptr %116, align 8
  %118 = icmp ne ptr %117, null
  br i1 %118, label %119, label %131

119:                                              ; preds = %98
  %120 = load ptr, ptr %5, align 8
  %121 = getelementptr inbounds nuw %struct.evdns_request, ptr %120, i32 0, i32 4
  %122 = load ptr, ptr %121, align 8
  %123 = load ptr, ptr %5, align 8
  %124 = getelementptr inbounds nuw %struct.evdns_request, ptr %123, i32 0, i32 8
  %125 = load i32, ptr %124, align 4
  %126 = load ptr, ptr %5, align 8
  %127 = getelementptr inbounds nuw %struct.evdns_request, ptr %126, i32 0, i32 10
  %128 = getelementptr inbounds nuw %struct.reply, ptr %127, i32 0, i32 4
  %129 = load ptr, ptr %128, align 8
  %130 = load ptr, ptr %4, align 8
  call void %122(i32 noundef 0, i8 noundef signext 4, i32 noundef 1, i32 noundef %125, ptr noundef %129, ptr noundef %130)
  br label %131

131:                                              ; preds = %119, %98
  br label %143

132:                                              ; preds = %93
  %133 = load ptr, ptr %5, align 8
  %134 = getelementptr inbounds nuw %struct.evdns_request, ptr %133, i32 0, i32 4
  %135 = load ptr, ptr %134, align 8
  %136 = load ptr, ptr %5, align 8
  %137 = getelementptr inbounds nuw %struct.evdns_request, ptr %136, i32 0, i32 9
  %138 = load i32, ptr %137, align 8
  %139 = load ptr, ptr %5, align 8
  %140 = getelementptr inbounds nuw %struct.evdns_request, ptr %139, i32 0, i32 8
  %141 = load i32, ptr %140, align 4
  %142 = load ptr, ptr %4, align 8
  call void %135(i32 noundef %138, i8 noundef signext 3, i32 noundef 0, i32 noundef %141, ptr noundef null, ptr noundef %142)
  br label %143

143:                                              ; preds = %132, %131
  br label %148

144:                                              ; preds = %2
  br label %145

145:                                              ; preds = %144
  br label %146

146:                                              ; preds = %145
  br label %147

147:                                              ; preds = %146
  br label %148

148:                                              ; preds = %147, %143, %92, %63
  %149 = load ptr, ptr %5, align 8
  %150 = getelementptr inbounds nuw %struct.evdns_request, ptr %149, i32 0, i32 10
  %151 = getelementptr inbounds nuw %struct.reply, ptr %150, i32 0, i32 3
  %152 = load ptr, ptr %151, align 8
  %153 = icmp ne ptr %152, null
  br i1 %153, label %154, label %159

154:                                              ; preds = %148
  %155 = load ptr, ptr %5, align 8
  %156 = getelementptr inbounds nuw %struct.evdns_request, ptr %155, i32 0, i32 10
  %157 = getelementptr inbounds nuw %struct.reply, ptr %156, i32 0, i32 3
  %158 = load ptr, ptr %157, align 8
  call void @event_mm_free_(ptr noundef %158)
  br label %159

159:                                              ; preds = %154, %148
  %160 = load ptr, ptr %5, align 8
  %161 = getelementptr inbounds nuw %struct.evdns_request, ptr %160, i32 0, i32 10
  %162 = getelementptr inbounds nuw %struct.reply, ptr %161, i32 0, i32 4
  %163 = load ptr, ptr %162, align 8
  %164 = icmp ne ptr %163, null
  br i1 %164, label %165, label %170

165:                                              ; preds = %159
  %166 = load ptr, ptr %5, align 8
  %167 = getelementptr inbounds nuw %struct.evdns_request, ptr %166, i32 0, i32 10
  %168 = getelementptr inbounds nuw %struct.reply, ptr %167, i32 0, i32 4
  %169 = load ptr, ptr %168, align 8
  call void @event_mm_free_(ptr noundef %169)
  br label %170

170:                                              ; preds = %165, %159
  %171 = load ptr, ptr %5, align 8
  call void @event_mm_free_(ptr noundef %171)
  call void @llvm.lifetime.end.p0(i64 8, ptr %5) #10
  ret void
}