; Function Attrs: nounwind uwtable
define internal void @reply_run_callback(ptr noundef %0, ptr noundef %1) #2 {
  %3 = alloca ptr, align 8
  %4 = getelementptr inbounds nuw i8, ptr %0, i64 56
  %5 = load i8, ptr %4, align 8
  switch i8 %5, label %63 [
    i8 1, label %6
    i8 12, label %26
    i8 28, label %43
  ]

6:                                                ; preds = %2
  %7 = getelementptr inbounds nuw i8, ptr %0, i64 57
  %8 = load i8, ptr %7, align 1
  %.not51 = icmp eq i8 %8, 0
  %9 = getelementptr inbounds nuw i8, ptr %0, i64 40
  %10 = load ptr, ptr %9, align 8
  %11 = getelementptr inbounds nuw i8, ptr %0, i64 60
  %12 = load i32, ptr %11, align 4
  br i1 %.not51, label %23, label %13

13:                                               ; preds = %6
  %14 = getelementptr inbounds nuw i8, ptr %0, i64 80
  %15 = load i32, ptr %14, align 8
  %16 = getelementptr inbounds nuw i8, ptr %0, i64 88
  %17 = load ptr, ptr %16, align 8
  tail call void %10(i32 noundef 0, i8 noundef signext 1, i32 noundef %15, i32 noundef %12, ptr noundef %17, ptr noundef %1) #21
  %18 = getelementptr inbounds nuw i8, ptr %0, i64 96
  %19 = load ptr, ptr %18, align 8
  %.not52 = icmp eq ptr %19, null
  br i1 %.not52, label %63, label %20

20:                                               ; preds = %13
  %21 = load ptr, ptr %9, align 8
  %22 = load i32, ptr %11, align 4
  tail call void %21(i32 noundef 0, i8 noundef signext 4, i32 noundef 1, i32 noundef %22, ptr noundef nonnull %19, ptr noundef %1) #21
  br label %63

23:                                               ; preds = %6
  %24 = getelementptr inbounds nuw i8, ptr %0, i64 64
  %25 = load i32, ptr %24, align 8
  tail call void %10(i32 noundef %25, i8 noundef signext 1, i32 noundef 0, i32 noundef %12, ptr noundef null, ptr noundef %1) #21
  br label %63

26:                                               ; preds = %2
  %27 = getelementptr inbounds nuw i8, ptr %0, i64 57
  %28 = load i8, ptr %27, align 1
  %.not50 = icmp eq i8 %28, 0
  br i1 %.not50, label %36, label %29

29:                                               ; preds = %26
  call void @llvm.lifetime.start.p0(i64 8, ptr nonnull %3) #21
  %30 = getelementptr inbounds nuw i8, ptr %0, i64 88
  %31 = load ptr, ptr %30, align 8
  store ptr %31, ptr %3, align 8
  %32 = getelementptr inbounds nuw i8, ptr %0, i64 40
  %33 = load ptr, ptr %32, align 8
  %34 = getelementptr inbounds nuw i8, ptr %0, i64 60
  %35 = load i32, ptr %34, align 4
  call void %33(i32 noundef 0, i8 noundef signext 2, i32 noundef 1, i32 noundef %35, ptr noundef nonnull %3, ptr noundef %1) #21
  call void @llvm.lifetime.end.p0(i64 8, ptr nonnull %3) #21
  br label %63

36:                                               ; preds = %26
  %37 = getelementptr inbounds nuw i8, ptr %0, i64 40
  %38 = load ptr, ptr %37, align 8
  %39 = getelementptr inbounds nuw i8, ptr %0, i64 64
  %40 = load i32, ptr %39, align 8
  %41 = getelementptr inbounds nuw i8, ptr %0, i64 60
  %42 = load i32, ptr %41, align 4
  tail call void %38(i32 noundef %40, i8 noundef signext 2, i32 noundef 0, i32 noundef %42, ptr noundef null, ptr noundef %1) #21
  br label %63

43:                                               ; preds = %2
  %44 = getelementptr inbounds nuw i8, ptr %0, i64 57
  %45 = load i8, ptr %44, align 1
  %.not = icmp eq i8 %45, 0
  %46 = getelementptr inbounds nuw i8, ptr %0, i64 40
  %47 = load ptr, ptr %46, align 8
  %48 = getelementptr inbounds nuw i8, ptr %0, i64 60
  %49 = load i32, ptr %48, align 4
  br i1 %.not, label %60, label %50

50:                                               ; preds = %43
  %51 = getelementptr inbounds nuw i8, ptr %0, i64 80
  %52 = load i32, ptr %51, align 8
  %53 = getelementptr inbounds nuw i8, ptr %0, i64 88
  %54 = load ptr, ptr %53, align 8
  tail call void %47(i32 noundef 0, i8 noundef signext 3, i32 noundef %52, i32 noundef %49, ptr noundef %54, ptr noundef %1) #21
  %55 = getelementptr inbounds nuw i8, ptr %0, i64 96
  %56 = load ptr, ptr %55, align 8
  %.not49 = icmp eq ptr %56, null
  br i1 %.not49, label %63, label %57

57:                                               ; preds = %50
  %58 = load ptr, ptr %46, align 8
  %59 = load i32, ptr %48, align 4
  tail call void %58(i32 noundef 0, i8 noundef signext 4, i32 noundef 1, i32 noundef %59, ptr noundef nonnull %56, ptr noundef %1) #21
  br label %63

60:                                               ; preds = %43
  %61 = getelementptr inbounds nuw i8, ptr %0, i64 64
  %62 = load i32, ptr %61, align 8
  tail call void %47(i32 noundef %62, i8 noundef signext 3, i32 noundef 0, i32 noundef %49, ptr noundef null, ptr noundef %1) #21
  br label %63

63:                                               ; preds = %2, %60, %57, %50, %29, %36, %23, %20, %13
  %64 = getelementptr inbounds nuw i8, ptr %0, i64 88
  %65 = load ptr, ptr %64, align 8
  %.not53 = icmp eq ptr %65, null
  br i1 %.not53, label %67, label %66

66:                                               ; preds = %63
  call void @event_mm_free_(ptr noundef nonnull %65) #21
  br label %67

67:                                               ; preds = %66, %63
  %68 = getelementptr inbounds nuw i8, ptr %0, i64 96
  %69 = load ptr, ptr %68, align 8
  %.not54 = icmp eq ptr %69, null
  br i1 %.not54, label %71, label %70

70:                                               ; preds = %67
  call void @event_mm_free_(ptr noundef nonnull %69) #21
  br label %71

71:                                               ; preds = %70, %67
  %72 = getelementptr inbounds i8, ptr %0, i64 -24
  call void @event_mm_free_(ptr noundef nonnull %72) #21
  ret void
}